; ModuleID = '9/784.c'
source_filename = "9/784.c"
target datalayout = "e-m:e-p270:32:32-p271:32:32-p272:64:64-i64:64-f80:128-n8:16:32:64-S128"
target triple = "x86_64-pc-linux-gnu"

%struct.information = type { [10 x i8], i32 }

@.str = private unnamed_addr constant [3 x i8] c"%d\00", align 1
@a = common dso_local global %struct.information* null, align 8
@.str.1 = private unnamed_addr constant [5 x i8] c"%s%d\00", align 1
@.str.2 = private unnamed_addr constant [4 x i8] c"%s\0A\00", align 1

; Function Attrs: noinline nounwind uwtable
define dso_local void @main() #0 {
  %1 = alloca i32, align 4
  %2 = alloca i32, align 4
  %3 = alloca i32, align 4
  %4 = alloca i32, align 4
  %5 = alloca i32, align 4
  %6 = alloca i32, align 4
  store i32 0, i32* %6, align 4
  %7 = call i32 (i8*, ...) @__isoc99_scanf(i8* getelementptr inbounds ([3 x i8], [3 x i8]* @.str, i64 0, i64 0), i32* %1)
  %8 = load i32, i32* %1, align 4
  %9 = sext i32 %8 to i64
  %10 = mul i64 16, %9
  %11 = call noalias i8* @malloc(i64 %10) #3
  %12 = bitcast i8* %11 to %struct.information*
  store %struct.information* %12, %struct.information** @a, align 8
  store i32 0, i32* %2, align 4
  br label %13

13:                                               ; preds = %30, %0
  %14 = load i32, i32* %2, align 4
  %15 = load i32, i32* %1, align 4
  %16 = icmp slt i32 %14, %15
  br i1 %16, label %17, label %33

17:                                               ; preds = %13
  %18 = load %struct.information*, %struct.information** @a, align 8
  %19 = load i32, i32* %2, align 4
  %20 = sext i32 %19 to i64
  %21 = getelementptr inbounds %struct.information, %struct.information* %18, i64 %20
  %22 = getelementptr inbounds %struct.information, %struct.information* %21, i32 0, i32 0
  %23 = getelementptr inbounds [10 x i8], [10 x i8]* %22, i64 0, i64 0
  %24 = load %struct.information*, %struct.information** @a, align 8
  %25 = load i32, i32* %2, align 4
  %26 = sext i32 %25 to i64
  %27 = getelementptr inbounds %struct.information, %struct.information* %24, i64 %26
  %28 = getelementptr inbounds %struct.information, %struct.information* %27, i32 0, i32 1
  %29 = call i32 (i8*, ...) @__isoc99_scanf(i8* getelementptr inbounds ([5 x i8], [5 x i8]* @.str.1, i64 0, i64 0), i8* %23, i32* %28)
  br label %30

30:                                               ; preds = %17
  %31 = load i32, i32* %2, align 4
  %32 = add nsw i32 %31, 1
  store i32 %32, i32* %2, align 4
  br label %13

33:                                               ; preds = %13
  store i32 0, i32* %2, align 4
  br label %34

34:                                               ; preds = %50, %33
  %35 = load i32, i32* %2, align 4
  %36 = load i32, i32* %1, align 4
  %37 = icmp slt i32 %35, %36
  br i1 %37, label %38, label %53

38:                                               ; preds = %34
  %39 = load %struct.information*, %struct.information** @a, align 8
  %40 = load i32, i32* %2, align 4
  %41 = sext i32 %40 to i64
  %42 = getelementptr inbounds %struct.information, %struct.information* %39, i64 %41
  %43 = getelementptr inbounds %struct.information, %struct.information* %42, i32 0, i32 1
  %44 = load i32, i32* %43, align 4
  %45 = icmp sgt i32 %44, 59
  br i1 %45, label %46, label %49

46:                                               ; preds = %38
  %47 = load i32, i32* %6, align 4
  %48 = add nsw i32 %47, 1
  store i32 %48, i32* %6, align 4
  br label %49

49:                                               ; preds = %46, %38
  br label %50

50:                                               ; preds = %49
  %51 = load i32, i32* %2, align 4
  %52 = add nsw i32 %51, 1
  store i32 %52, i32* %2, align 4
  br label %34

53:                                               ; preds = %34
  store i32 0, i32* %2, align 4
  br label %54

54:                                               ; preds = %97, %53
  %55 = load i32, i32* %2, align 4
  %56 = load i32, i32* %6, align 4
  %57 = icmp slt i32 %55, %56
  br i1 %57, label %58, label %100

58:                                               ; preds = %54
  store i32 0, i32* %4, align 4
  store i32 0, i32* %3, align 4
  br label %59

59:                                               ; preds = %81, %58
  %60 = load i32, i32* %3, align 4
  %61 = load i32, i32* %1, align 4
  %62 = icmp slt i32 %60, %61
  br i1 %62, label %63, label %84

63:                                               ; preds = %59
  %64 = load i32, i32* %4, align 4
  %65 = load %struct.information*, %struct.information** @a, align 8
  %66 = load i32, i32* %3, align 4
  %67 = sext i32 %66 to i64
  %68 = getelementptr inbounds %struct.information, %struct.information* %65, i64 %67
  %69 = getelementptr inbounds %struct.information, %struct.information* %68, i32 0, i32 1
  %70 = load i32, i32* %69, align 4
  %71 = icmp slt i32 %64, %70
  br i1 %71, label %72, label %80

72:                                               ; preds = %63
  %73 = load %struct.information*, %struct.information** @a, align 8
  %74 = load i32, i32* %3, align 4
  %75 = sext i32 %74 to i64
  %76 = getelementptr inbounds %struct.information, %struct.information* %73, i64 %75
  %77 = getelementptr inbounds %struct.information, %struct.information* %76, i32 0, i32 1
  %78 = load i32, i32* %77, align 4
  store i32 %78, i32* %4, align 4
  %79 = load i32, i32* %3, align 4
  store i32 %79, i32* %5, align 4
  br label %80

80:                                               ; preds = %72, %63
  br label %81

81:                                               ; preds = %80
  %82 = load i32, i32* %3, align 4
  %83 = add nsw i32 %82, 1
  store i32 %83, i32* %3, align 4
  br label %59

84:                                               ; preds = %59
  %85 = load %struct.information*, %struct.information** @a, align 8
  %86 = load i32, i32* %5, align 4
  %87 = sext i32 %86 to i64
  %88 = getelementptr inbounds %struct.information, %struct.information* %85, i64 %87
  %89 = getelementptr inbounds %struct.information, %struct.information* %88, i32 0, i32 0
  %90 = getelementptr inbounds [10 x i8], [10 x i8]* %89, i64 0, i64 0
  %91 = call i32 (i8*, ...) @printf(i8* getelementptr inbounds ([4 x i8], [4 x i8]* @.str.2, i64 0, i64 0), i8* %90)
  %92 = load %struct.information*, %struct.information** @a, align 8
  %93 = load i32, i32* %5, align 4
  %94 = sext i32 %93 to i64
  %95 = getelementptr inbounds %struct.information, %struct.information* %92, i64 %94
  %96 = getelementptr inbounds %struct.information, %struct.information* %95, i32 0, i32 1
  store i32 0, i32* %96, align 4
  br label %97

97:                                               ; preds = %84
  %98 = load i32, i32* %2, align 4
  %99 = add nsw i32 %98, 1
  store i32 %99, i32* %2, align 4
  br label %54

100:                                              ; preds = %54
  store i32 0, i32* %2, align 4
  br label %101

101:                                              ; preds = %122, %100
  %102 = load i32, i32* %2, align 4
  %103 = load i32, i32* %1, align 4
  %104 = icmp slt i32 %102, %103
  br i1 %104, label %105, label %125

105:                                              ; preds = %101
  %106 = load %struct.information*, %struct.information** @a, align 8
  %107 = load i32, i32* %2, align 4
  %108 = sext i32 %107 to i64
  %109 = getelementptr inbounds %struct.information, %struct.information* %106, i64 %108
  %110 = getelementptr inbounds %struct.information, %struct.information* %109, i32 0, i32 1
  %111 = load i32, i32* %110, align 4
  %112 = icmp ne i32 %111, 0
  br i1 %112, label %113, label %121

113:                                              ; preds = %105
  %114 = load %struct.information*, %struct.information** @a, align 8
  %115 = load i32, i32* %2, align 4
  %116 = sext i32 %115 to i64
  %117 = getelementptr inbounds %struct.information, %struct.information* %114, i64 %116
  %118 = getelementptr inbounds %struct.information, %struct.information* %117, i32 0, i32 0
  %119 = getelementptr inbounds [10 x i8], [10 x i8]* %118, i64 0, i64 0
  %120 = call i32 (i8*, ...) @printf(i8* getelementptr inbounds ([4 x i8], [4 x i8]* @.str.2, i64 0, i64 0), i8* %119)
  br label %121

121:                                              ; preds = %113, %105
  br label %122

122:                                              ; preds = %121
  %123 = load i32, i32* %2, align 4
  %124 = add nsw i32 %123, 1
  store i32 %124, i32* %2, align 4
  br label %101

125:                                              ; preds = %101
  ret void
}

declare dso_local i32 @__isoc99_scanf(i8*, ...) #1

; Function Attrs: nounwind
declare dso_local noalias i8* @malloc(i64) #2

declare dso_local i32 @printf(i8*, ...) #1


!llvm.module.flags = !{!0}
!llvm.ident = !{!1}

!0 = !{i32 1, !"wchar_size", i32 4}
!1 = !{!"clang version 10.0.0-4ubuntu1 "}
